target datalayout = "e-m:e-p270:32:32-p271:32:32-p272:64:64-i64:64-i128:128-f80:128-n8:16:32:64-S128"
target triple = "x86_64-pc-linux-gnu"

%struct.access_mask_info = type { ptr, ptr, ptr, ptr }
%struct._e_guid_t = type { i32, i16, i16, [8 x i8] }
%struct._dcerpc_info = type { ptr, i32, i64, i8, i32, i32, i32, i32, i32, i32, i32, i32, i32, i32, ptr, ptr, ptr }
%struct._dcerpc_call_value = type { %struct._e_guid_t, i16, %struct._e_guid_t, i16, i32, %struct.nstime_t, i32, i32, ptr, ptr, ptr, i32 }
%struct.nstime_t = type { i64, i32 }
%struct._packet_info = type { ptr, ptr, i32, i32, %struct.nstime_t, %struct.nstime_t, %struct.nstime_t, i32, ptr, ptr, ptr, ptr, %struct._address, %struct._address, %struct._address, %struct._address, %struct._address, %struct._address, i32, ptr, i32, %struct.anon, i32, i32, i32, i32, ptr, i32, ptr, ptr, i16, i16, i32, i32, i16, i32, i32, ptr, ptr, ptr, i8, i8, i16, i16, i16, i32, i16, i16, ptr, ptr, ptr, ptr, ptr, i32 }
%struct._address = type { i32, i32, ptr, ptr }
%struct.anon = type { i8, [3 x i8] }

@lsarpc_policy_access_mask_info = hidden global %struct.access_mask_info { ptr @.str.90, ptr @lsarpc_policy_specific_rights, ptr null, ptr null }, align 8
@lsarpc_account_access_mask_info = hidden global %struct.access_mask_info { ptr @.str.91, ptr @lsarpc_account_specific_rights, ptr null, ptr null }, align 8
@lsarpc_secret_access_mask_info = hidden global %struct.access_mask_info { ptr @.str.92, ptr @lsarpc_secret_specific_rights, ptr null, ptr null }, align 8
@lsarpc_domain_access_mask_info = hidden global %struct.access_mask_info { ptr @.str.93, ptr @lsarpc_domain_specific_rights, ptr null, ptr null }, align 8
@hf_lsarpc_sec_desc_buf_len = internal global i32 -1, align 4

; Function Attrs: nounwind uwtable
define internal i32 @cnf_dissect_sec_desc_buf_(ptr noundef %0, i32 noundef %1, ptr noundef %2, ptr noundef %3, ptr noundef %4, ptr noundef %5) #0 {
  %7 = alloca i32, align 4
  %8 = alloca ptr, align 8
  %9 = alloca i32, align 4
  %10 = alloca ptr, align 8
  %11 = alloca ptr, align 8
  %12 = alloca ptr, align 8
  %13 = alloca ptr, align 8
  %14 = alloca i32, align 4
  %15 = alloca ptr, align 8
  %16 = alloca ptr, align 8
  %17 = alloca i32, align 4
  %18 = alloca ptr, align 8
  store ptr %0, ptr %8, align 8
  store i32 %1, ptr %9, align 4
  store ptr %2, ptr %10, align 8
  store ptr %3, ptr %11, align 8
  store ptr %4, ptr %12, align 8
  store ptr %5, ptr %13, align 8
  store ptr null, ptr %15, align 8
  store ptr null, ptr %16, align 8
  store i32 0, ptr %17, align 4
  store ptr null, ptr %18, align 8
  %19 = load ptr, ptr %12, align 8
  %20 = getelementptr inbounds %struct._dcerpc_info, ptr %19, i32 0, i32 4
  %21 = load i32, ptr %20, align 4
  %22 = icmp ne i32 %21, 0
  br i1 %22, label %23, label %25

23:                                               ; preds = %6
  %24 = load i32, ptr %9, align 4
  store i32 %24, ptr %7, align 4
  br label %71

25:                                               ; preds = %6
  %26 = load ptr, ptr %8, align 8
  %27 = load i32, ptr %9, align 4
  %28 = load ptr, ptr %10, align 8
  %29 = load ptr, ptr %11, align 8
  %30 = load ptr, ptr %12, align 8
  %31 = load ptr, ptr %13, align 8
  %32 = load i32, ptr @hf_lsarpc_sec_desc_buf_len, align 4
  %33 = call i32 @dissect_ndr_uint32(ptr noundef %26, i32 noundef %27, ptr noundef %28, ptr noundef %29, ptr noundef %30, ptr noundef %31, i32 noundef %32, ptr noundef %14)
  store i32 %33, ptr %9, align 4
  %34 = load ptr, ptr %12, align 8
  %35 = getelementptr inbounds %struct._dcerpc_info, ptr %34, i32 0, i32 14
  %36 = load ptr, ptr %35, align 8
  store ptr %36, ptr %16, align 8
  %37 = load ptr, ptr %16, align 8
  %38 = icmp ne ptr %37, null
  br i1 %38, label %39, label %43

39:                                               ; preds = %25
  %40 = load ptr, ptr %16, align 8
  %41 = getelementptr inbounds %struct._dcerpc_call_value, ptr %40, i32 0, i32 10
  %42 = load ptr, ptr %41, align 8
  store ptr %42, ptr %15, align 8
  br label %43

43:                                               ; preds = %39, %25
  %44 = load ptr, ptr %15, align 8
  %45 = icmp ne ptr %44, null
  br i1 %45, label %46, label %52

46:                                               ; preds = %43
  %47 = load ptr, ptr %15, align 8
  %48 = load ptr, ptr %10, align 8
  %49 = getelementptr inbounds %struct._packet_info, ptr %48, i32 0, i32 3
  %50 = load i32, ptr %49, align 4
  %51 = call i32 @dcerpc_fetch_polhnd_data(ptr noundef %47, ptr noundef null, ptr noundef %17, ptr noundef null, ptr noundef null, i32 noundef %50)
  br label %52

52:                                               ; preds = %46, %43
  %53 = load i32, ptr %17, align 4
  switch i32 %53, label %58 [
    i32 393216, label %54
    i32 458752, label %55
    i32 524288, label %56
    i32 589824, label %57
  ]

54:                                               ; preds = %52
  store ptr @lsarpc_policy_access_mask_info, ptr %18, align 8
  br label %58

55:                                               ; preds = %52
  store ptr @lsarpc_account_access_mask_info, ptr %18, align 8
  br label %58

56:                                               ; preds = %52
  store ptr @lsarpc_secret_access_mask_info, ptr %18, align 8
  br label %58

57:                                               ; preds = %52
  store ptr @lsarpc_domain_access_mask_info, ptr %18, align 8
  br label %58

58:                                               ; preds = %57, %56, %55, %54, %52
  %59 = load ptr, ptr %8, align 8
  %60 = load i32, ptr %9, align 4
  %61 = load ptr, ptr %10, align 8
  %62 = load ptr, ptr %11, align 8
  %63 = load ptr, ptr %13, align 8
  %64 = load i32, ptr %14, align 4
  %65 = load ptr, ptr %18, align 8
  %66 = call i32 @dissect_nt_sec_desc(ptr noundef %59, i32 noundef %60, ptr noundef %61, ptr noundef %62, ptr noundef %63, i32 noundef 1, i32 noundef %64, ptr noundef %65)
  %67 = load i32, ptr %14, align 4
  %68 = load i32, ptr %9, align 4
  %69 = add i32 %68, %67
  store i32 %69, ptr %9, align 4
  %70 = load i32, ptr %9, align 4
  store i32 %70, ptr %7, align 4
  br label %71

71:                                               ; preds = %58, %23
  %72 = load i32, ptr %7, align 4
  ret i32 %72
}