; Function Attrs: nounwind uwtable
define internal i32 @cnf_dissect_sec_desc_buf_(ptr noundef %0, i32 noundef %1, ptr noundef %2, ptr noundef %3, ptr noundef %4, ptr noundef %5) #0 {
  %7 = alloca i32, align 4
  %8 = alloca i32, align 4
  store i32 0, ptr %8, align 4
  %9 = getelementptr inbounds nuw i8, ptr %4, i64 28
  %10 = load i32, ptr %9, align 4
  %.not = icmp eq i32 %10, 0
  br i1 %.not, label %11, label %33

11:                                               ; preds = %6
  %12 = load i32, ptr @hf_lsarpc_sec_desc_buf_len, align 4
  %13 = call i32 @dissect_ndr_uint32(ptr noundef %0, i32 noundef %1, ptr noundef %2, ptr noundef %3, ptr noundef nonnull %4, ptr noundef %5, i32 noundef %12, ptr noundef nonnull %7) #5
  %14 = getelementptr inbounds nuw i8, ptr %4, i64 72
  %15 = load ptr, ptr %14, align 8
  %.not25 = icmp eq ptr %15, null
  br i1 %.not25, label %.thread, label %16

16:                                               ; preds = %11
  %17 = getelementptr inbounds nuw i8, ptr %15, i64 88
  %18 = load ptr, ptr %17, align 8
  %.not26 = icmp eq ptr %18, null
  br i1 %.not26, label %.thread, label %19

19:                                               ; preds = %16
  %20 = getelementptr inbounds nuw i8, ptr %2, i64 20
  %21 = load i32, ptr %20, align 4
  %22 = call i32 @dcerpc_fetch_polhnd_data(ptr noundef nonnull %18, ptr noundef null, ptr noundef nonnull %8, ptr noundef null, ptr noundef null, i32 noundef %21) #5
  %.pre = load i32, ptr %8, align 4
  %23 = add i32 %.pre, -393216
  br label %.thread

.thread:                                          ; preds = %11, %19, %16
  %24 = phi i32 [ -393216, %11 ], [ %23, %19 ], [ -393216, %16 ]
  %25 = call i32 @llvm.fshl.i32(i32 %24, i32 %24, i32 16)
  %26 = icmp ult i32 %25, 4
  br i1 %26, label %switch.lookup, label %28

switch.lookup:                                    ; preds = %.thread
  %27 = zext nneg i32 %25 to i64
  %switch.gep = getelementptr inbounds nuw [4 x ptr], ptr @switch.table.cnf_dissect_sec_desc_buf_, i64 0, i64 %27
  %switch.load = load ptr, ptr %switch.gep, align 8
  br label %28

28:                                               ; preds = %switch.lookup, %.thread
  %.0 = phi ptr [ null, %.thread ], [ %switch.load, %switch.lookup ]
  %29 = load i32, ptr %7, align 4
  %30 = call i32 @dissect_nt_sec_desc(ptr noundef %0, i32 noundef %13, ptr noundef %2, ptr noundef %3, ptr noundef %5, i32 noundef 1, i32 noundef %29, ptr noundef %.0) #5
  %31 = load i32, ptr %7, align 4
  %32 = add i32 %31, %13
  br label %33

33:                                               ; preds = %6, %28
  %.023 = phi i32 [ %32, %28 ], [ %1, %6 ]
  ret i32 %.023
}